; Function Attrs: mustprogress uwtable
define void @_ZN6icu_7725ScientificNumberFormatterC2ERKS0_(ptr noundef nonnull align 8 dereferenceable(88) initializes((0, 8)) %0, ptr noundef nonnull align 8 dereferenceable(88) %1) unnamed_addr #0 align 2 personality ptr @__gxx_personality_v0 {
  store ptr getelementptr inbounds nuw inrange(-16, 24) (i8, ptr @_ZTVN6icu_7725ScientificNumberFormatterE, i64 16), ptr %0, align 8, !tbaa !3
  %3 = getelementptr inbounds nuw i8, ptr %0, i64 8
  %4 = getelementptr inbounds nuw i8, ptr %1, i64 8
  invoke void @_ZN6icu_7713UnicodeStringC1ERKS0_(ptr noundef nonnull align 8 dereferenceable(64) %3, ptr noundef nonnull align 8 dereferenceable(64) %4)
          to label %5 unwind label %22

5:                                                ; preds = %2
  %6 = getelementptr inbounds nuw i8, ptr %0, i64 72
  %7 = getelementptr inbounds nuw i8, ptr %1, i64 72
  tail call void @llvm.memset.p0.i64(ptr noundef nonnull align 8 dereferenceable(16) %6, i8 0, i64 16, i1 false)
  %8 = load ptr, ptr %7, align 8, !tbaa !22
  %9 = load ptr, ptr %8, align 8, !tbaa !3
  %10 = getelementptr inbounds nuw i8, ptr %9, i64 32
  %11 = load ptr, ptr %10, align 8
  %12 = invoke noundef ptr %11(ptr noundef nonnull align 8 dereferenceable(72) %8)
          to label %13 unwind label %24

13:                                               ; preds = %5
  store ptr %12, ptr %6, align 8, !tbaa !22
  %14 = getelementptr inbounds nuw i8, ptr %1, i64 80
  %15 = load ptr, ptr %14, align 8, !tbaa !29
  %16 = load ptr, ptr %15, align 8, !tbaa !3
  %17 = getelementptr inbounds nuw i8, ptr %16, i64 24
  %18 = load ptr, ptr %17, align 8
  %19 = invoke noundef ptr %18(ptr noundef nonnull align 8 dereferenceable(8) %15)
          to label %20 unwind label %24

20:                                               ; preds = %13
  %21 = getelementptr inbounds nuw i8, ptr %0, i64 80
  store ptr %19, ptr %21, align 8, !tbaa !29
  ret void

22:                                               ; preds = %2
  %23 = landingpad { ptr, i32 }
          cleanup
  br label %26

24:                                               ; preds = %13, %5
  %25 = landingpad { ptr, i32 }
          cleanup
  tail call void @_ZN6icu_7713UnicodeStringD1Ev(ptr noundef nonnull align 8 dereferenceable(64) %3) #7
  br label %26

26:                                               ; preds = %24, %22
  %.pn = phi { ptr, i32 } [ %25, %24 ], [ %23, %22 ]
  tail call void @_ZN6icu_777UObjectD2Ev(ptr noundef nonnull align 8 dereferenceable(8) %0) #7
  resume { ptr, i32 } %.pn
}